; Function Attrs: mustprogress nofree norecurse nosync nounwind willreturn memory(argmem: read) uwtable
define dso_local noundef zeroext i1 @_ZNK4Json17ValueIteratorBase7isEqualERKS0_(ptr nocapture noundef nonnull readonly align 8 dereferenceable(9) %0, ptr nocapture noundef nonnull readonly align 8 dereferenceable(9) %1) local_unnamed_addr #7 align 2 {
  %3 = getelementptr inbounds i8, ptr %0, i64 8
  %4 = load i8, ptr %3, align 8
  %5 = and i8 %4, 1
  %.not = icmp eq i8 %5, 0
  br i1 %.not, label %11, label %6

6:                                                ; preds = %2
  %7 = getelementptr inbounds i8, ptr %1, i64 8
  %8 = load i8, ptr %7, align 8
  %9 = and i8 %8, 1
  %10 = icmp ne i8 %9, 0
  br label %15

11:                                               ; preds = %2
  %12 = load ptr, ptr %0, align 8
  %13 = load ptr, ptr %1, align 8
  %14 = icmp eq ptr %12, %13
  br label %15

15:                                               ; preds = %11, %6
  %.0 = phi i1 [ %10, %6 ], [ %14, %11 ]
  ret i1 %.0
}